; Function Attrs: nounwind uwtable
define range(i32 -29, 1) i32 @pmix_hash_table_init(ptr noundef %0, i64 noundef %1) local_unnamed_addr #1 {
  %3 = getelementptr inbounds nuw i8, ptr %0, i64 56
  %4 = load ptr, ptr %3, align 8, !tbaa !3
  %.not.i.i = icmp eq ptr %4, null
  %5 = shl i64 %1, 1
  %6 = add i64 %5, 29
  %7 = urem i64 %6, 30
  %8 = add i64 %5, 30
  %9 = sub i64 %8, %7
  br i1 %.not.i.i, label %14, label %10

10:                                               ; preds = %2
  %11 = getelementptr inbounds nuw i8, ptr %0, i64 64
  %12 = load ptr, ptr %11, align 8, !tbaa !29
  %13 = tail call ptr %12(ptr noundef nonnull %3, i64 noundef range(i64 1, -14) %9, i64 noundef 40) #13
  br label %pmix_tma_calloc.exit.i

14:                                               ; preds = %2
  %15 = tail call noalias ptr @calloc(i64 noundef range(i64 1, -14) %9, i64 noundef 40) #14
  br label %pmix_tma_calloc.exit.i

pmix_tma_calloc.exit.i:                           ; preds = %14, %10
  %.0.i.i = phi ptr [ %13, %10 ], [ %15, %14 ]
  %16 = getelementptr inbounds nuw i8, ptr %0, i64 128
  store ptr %.0.i.i, ptr %16, align 8, !tbaa !17
  %17 = icmp eq ptr %.0.i.i, null
  br i1 %17, label %pmix_hash_table_init2.exit, label %18, !prof !30

18:                                               ; preds = %pmix_tma_calloc.exit.i
  %19 = getelementptr inbounds nuw i8, ptr %0, i64 136
  store i64 %9, ptr %19, align 8, !tbaa !11
  %20 = getelementptr inbounds nuw i8, ptr %0, i64 160
  store i32 1, ptr %20, align 8, !tbaa !31
  %21 = getelementptr inbounds nuw i8, ptr %0, i64 164
  store i32 2, ptr %21, align 4, !tbaa !32
  %22 = getelementptr inbounds nuw i8, ptr %0, i64 168
  store i32 2, ptr %22, align 8, !tbaa !33
  %23 = getelementptr inbounds nuw i8, ptr %0, i64 172
  store i32 1, ptr %23, align 4, !tbaa !34
  %24 = lshr i64 %9, 1
  %25 = getelementptr inbounds nuw i8, ptr %0, i64 152
  store i64 %24, ptr %25, align 8, !tbaa !35
  %26 = getelementptr inbounds nuw i8, ptr %0, i64 176
  store ptr null, ptr %26, align 8, !tbaa !21
  br label %pmix_hash_table_init2.exit

pmix_hash_table_init2.exit:                       ; preds = %pmix_tma_calloc.exit.i, %18
  %.0.i = phi i32 [ 0, %18 ], [ -29, %pmix_tma_calloc.exit.i ]
  ret i32 %.0.i
}